; Function Attrs: mustprogress uwtable
define noundef zeroext i1 @_ZNK4cvc58internal9LogicInfo15isTheoryEnabledENS0_6theory8TheoryIdE(ptr nocapture noundef nonnull readonly align 8 dereferenceable(88) %this, i32 noundef %theory) local_unnamed_addr #3 align 2 personality ptr @__gxx_personality_v0 {
entry:
  %ref.tmp = alloca %"class.std::__cxx11::basic_string", align 8
  %d_locked = getelementptr inbounds i8, ptr %this, i64 87
  %0 = load i8, ptr %d_locked, align 1
  %1 = and i8 %0, 1
  %tobool.not = icmp eq i8 %1, 0
  br i1 %tobool.not, label %if.then, label %do.end

if.then:                                          ; preds = %entry
  %exception = tail call ptr @__cxa_allocate_exception(i64 40) #14
  invoke void (ptr, ptr, ...) @_ZN4cvc58internal24IllegalArgumentException14formatVariadicB5cxx11EPKcz(ptr nonnull sret(%"class.std::__cxx11::basic_string") align 8 %ref.tmp, ptr noundef nonnull @.str.3)
          to label %invoke.cont unwind label %ehcleanup.thread

invoke.cont:                                      ; preds = %if.then
  %call = call noundef ptr @_ZNKSt7__cxx1112basic_stringIcSt11char_traitsIcESaIcEE5c_strEv(ptr noundef nonnull align 8 dereferenceable(32) %ref.tmp) #14
  invoke void @_ZN4cvc58internal24IllegalArgumentExceptionC2EPKcS3_S3_S3_(ptr noundef nonnull align 8 dereferenceable(40) %exception, ptr noundef nonnull @.str.1, ptr noundef nonnull @.str.2, ptr noundef nonnull @__PRETTY_FUNCTION__._ZNK4cvc58internal9LogicInfo15isTheoryEnabledENS0_6theory8TheoryIdE, ptr noundef %call)
          to label %invoke.cont3 unwind label %ehcleanup.thread6

ehcleanup.thread6:                                ; preds = %invoke.cont
  %2 = landingpad { ptr, i32 }
          cleanup
  call void @_ZNSt7__cxx1112basic_stringIcSt11char_traitsIcESaIcEED1Ev(ptr noundef nonnull align 8 dereferenceable(32) %ref.tmp) #14
  br label %cleanup.action

invoke.cont3:                                     ; preds = %invoke.cont
  invoke void @__cxa_throw(ptr nonnull %exception, ptr nonnull @_ZTIN4cvc58internal24IllegalArgumentExceptionE, ptr nonnull @_ZN4cvc58internal24IllegalArgumentExceptionD2Ev) #16
          to label %unreachable unwind label %ehcleanup

ehcleanup.thread:                                 ; preds = %if.then
  %3 = landingpad { ptr, i32 }
          cleanup
  br label %cleanup.action

ehcleanup:                                        ; preds = %invoke.cont3
  %4 = landingpad { ptr, i32 }
          cleanup
  call void @_ZNSt7__cxx1112basic_stringIcSt11char_traitsIcESaIcEED1Ev(ptr noundef nonnull align 8 dereferenceable(32) %ref.tmp) #14
  br label %eh.resume

cleanup.action:                                   ; preds = %ehcleanup.thread6, %ehcleanup.thread
  %.pn5 = phi { ptr, i32 } [ %3, %ehcleanup.thread ], [ %2, %ehcleanup.thread6 ]
  call void @__cxa_free_exception(ptr %exception) #14
  br label %eh.resume

do.end:                                           ; preds = %entry
  %d_theories = getelementptr inbounds i8, ptr %this, i64 32
  %5 = load ptr, ptr %d_theories, align 8
  %div.i.i.i.i.i8910 = lshr i32 %theory, 6
  %div.i.i.i.i.i8.zext = zext nneg i32 %div.i.i.i.i.i8910 to i64
  %add.ptr.i.i.i.i.i = getelementptr inbounds i64, ptr %5, i64 %div.i.i.i.i.i8.zext
  %6 = and i32 %theory, 63
  %conv4.i.i.i.i.i = zext nneg i32 %6 to i64
  %shl.i.i.i = shl nuw i64 1, %conv4.i.i.i.i.i
  %7 = load i64, ptr %add.ptr.i.i.i.i.i, align 8
  %and.i.i.i.i = and i64 %7, %shl.i.i.i
  %tobool.i.i.i.i = icmp ne i64 %and.i.i.i.i, 0
  ret i1 %tobool.i.i.i.i

eh.resume:                                        ; preds = %ehcleanup, %cleanup.action
  %.pn4 = phi { ptr, i32 } [ %4, %ehcleanup ], [ %.pn5, %cleanup.action ]
  resume { ptr, i32 } %.pn4

unreachable:                                      ; preds = %invoke.cont3
  unreachable
}